target datalayout = "e-m:e-p270:32:32-p271:32:32-p272:64:64-i64:64-i128:128-f80:128-n8:16:32:64-S128"
target triple = "x86_64-pc-linux-gnu"

%struct.RelationData = type { %struct.RelFileLocator, ptr, i32, i32, i8, i8, i8, i8, i8, i32, i32, i32, i32, ptr, ptr, i32, %struct.LockInfoData, ptr, ptr, ptr, ptr, ptr, i8, ptr, ptr, ptr, ptr, ptr, ptr, i32, ptr, i8, ptr, ptr, i32, i8, i32, ptr, i8, ptr, ptr, ptr, ptr, ptr, ptr, ptr, i32, ptr, ptr, ptr, ptr, ptr, ptr, ptr, ptr, ptr, ptr, ptr, ptr, ptr, ptr, ptr, ptr, ptr, ptr, ptr, i32, i8, ptr }
%struct.RelFileLocator = type { i32, i32, i32 }
%struct.LockInfoData = type { %struct.LockRelId }
%struct.LockRelId = type { i32, i32 }
%struct.PgStat_TableStatus = type { i32, i8, ptr, %struct.PgStat_TableCounts, ptr }
%struct.PgStat_TableCounts = type { i64, i64, i64, i64, i64, i64, i64, i64, i8, i64, i64, i64, i64, i64 }

; Function Attrs: nounwind uwtable
define dso_local void @pgstat_update_heap_dead_tuples(ptr noundef %0, i32 noundef %1) #0 {
  %3 = alloca ptr, align 8
  %4 = alloca i32, align 4
  %5 = alloca ptr, align 8
  store ptr %0, ptr %3, align 8
  store i32 %1, ptr %4, align 4
  %6 = load ptr, ptr %3, align 8
  %7 = getelementptr inbounds nuw %struct.RelationData, ptr %6, i32 0, i32 68
  %8 = load ptr, ptr %7, align 8
  %9 = icmp ne ptr %8, null
  %10 = zext i1 %9 to i32
  %11 = icmp ne i32 %10, 0
  %12 = zext i1 %11 to i32
  %13 = sext i32 %12 to i64
  %14 = call i64 @llvm.expect.i64(i64 %13, i64 1)
  %15 = icmp ne i64 %14, 0
  br i1 %15, label %16, label %17

16:                                               ; preds = %2
  br i1 true, label %25, label %36

17:                                               ; preds = %2
  %18 = load ptr, ptr %3, align 8
  %19 = getelementptr inbounds nuw %struct.RelationData, ptr %18, i32 0, i32 67
  %20 = load i8, ptr %19, align 4, !range !4, !noundef !5
  %21 = trunc i8 %20 to i1
  br i1 %21, label %22, label %24

22:                                               ; preds = %17
  %23 = load ptr, ptr %3, align 8
  call void @pgstat_assoc_relation(ptr noundef %23)
  br i1 true, label %25, label %36

24:                                               ; preds = %17
  br i1 false, label %25, label %36

25:                                               ; preds = %24, %22, %16
  call void @llvm.lifetime.start.p0(i64 8, ptr %5) #6
  %26 = load ptr, ptr %3, align 8
  %27 = getelementptr inbounds nuw %struct.RelationData, ptr %26, i32 0, i32 68
  %28 = load ptr, ptr %27, align 8
  store ptr %28, ptr %5, align 8
  %29 = load i32, ptr %4, align 4
  %30 = sext i32 %29 to i64
  %31 = load ptr, ptr %5, align 8
  %32 = getelementptr inbounds nuw %struct.PgStat_TableStatus, ptr %31, i32 0, i32 3
  %33 = getelementptr inbounds nuw %struct.PgStat_TableCounts, ptr %32, i32 0, i32 10
  %34 = load i64, ptr %33, align 8
  %35 = sub i64 %34, %30
  store i64 %35, ptr %33, align 8
  call void @llvm.lifetime.end.p0(i64 8, ptr %5) #6
  br label %36

36:                                               ; preds = %25, %24, %22, %16
  ret void
}