; Function Attrs: nounwind uwtable
define dso_local void @pgstat_update_heap_dead_tuples(ptr noundef %0, i32 noundef %1) local_unnamed_addr #0 {
  %3 = getelementptr inbounds nuw i8, ptr %0, i64 480
  %4 = load ptr, ptr %3, align 8
  %.not = icmp eq ptr %4, null
  br i1 %.not, label %5, label %10, !prof !6

5:                                                ; preds = %2
  %6 = getelementptr inbounds nuw i8, ptr %0, i64 476
  %7 = load i8, ptr %6, align 4, !range !4, !noundef !5
  %8 = trunc nuw i8 %7 to i1
  br i1 %8, label %9, label %16

9:                                                ; preds = %5
  tail call void @pgstat_assoc_relation(ptr noundef nonnull %0)
  %.pre = load ptr, ptr %3, align 8
  br label %10

10:                                               ; preds = %2, %9
  %11 = phi ptr [ %4, %2 ], [ %.pre, %9 ]
  %12 = sext i32 %1 to i64
  %13 = getelementptr inbounds nuw i8, ptr %11, i64 96
  %14 = load i64, ptr %13, align 8
  %15 = sub i64 %14, %12
  store i64 %15, ptr %13, align 8
  br label %16

16:                                               ; preds = %5, %10
  ret void
}